; Function Attrs: nounwind uwtable
define internal i32 @drsuapi_dissect_element_DsWriteAccountSpn_res_(ptr noundef %0, i32 noundef %1, ptr noundef %2, ptr noundef %3, ptr noundef %4, ptr noundef %5) #0 {
  %7 = alloca ptr, align 8
  %8 = alloca i32, align 4
  %9 = load i32, ptr @hf_drsuapi_drsuapi_DsWriteAccountSpn_res, align 4
  call void @llvm.lifetime.start.p0(i64 8, ptr nonnull %7)
  call void @llvm.lifetime.start.p0(i64 4, ptr nonnull %8)
  store ptr null, ptr %7, align 8
  %.not.i = icmp eq ptr %3, null
  br i1 %.not.i, label %13, label %10

10:                                               ; preds = %6
  %11 = load i32, ptr @ett_drsuapi_drsuapi_DsWriteAccountSpnResult, align 4
  %12 = call ptr @proto_tree_add_subtree(ptr noundef nonnull %3, ptr noundef %0, i32 noundef %1, i32 noundef -1, i32 noundef %11, ptr noundef nonnull %7, ptr noundef nonnull @.str.1760) #5
  br label %13

13:                                               ; preds = %10, %6
  %.023.i = phi ptr [ %12, %10 ], [ null, %6 ]
  %14 = call i32 @dissect_ndr_uint32(ptr noundef %0, i32 noundef %1, ptr noundef %2, ptr noundef %.023.i, ptr noundef %4, ptr noundef %5, i32 noundef %9, ptr noundef nonnull %8) #5
  %15 = getelementptr inbounds nuw i8, ptr %4, i64 28
  %16 = load i32, ptr %15, align 4
  %.not25.i = icmp ne i32 %16, 0
  %17 = and i32 %14, 3
  %.not26.i = icmp eq i32 %17, 0
  %or.cond.i = select i1 %.not25.i, i1 true, i1 %.not26.i
  %18 = and i32 %14, -4
  %19 = add i32 %18, 4
  %.0.i = select i1 %or.cond.i, i32 %14, i32 %19
  %20 = load i32, ptr %8, align 4
  %cond.i = icmp eq i32 %20, 1
  br i1 %cond.i, label %21, label %drsuapi_dissect_DsWriteAccountSpnResult.exit

21:                                               ; preds = %13
  %22 = load i32, ptr @hf_drsuapi_drsuapi_DsWriteAccountSpnResult_res1, align 4
  %23 = call i32 @drsuapi_dissect_struct_DsWriteAccountSpnResult1(ptr noundef %0, i32 noundef %.0.i, ptr noundef %2, ptr noundef %.023.i, ptr noundef nonnull %4, ptr noundef %5, i32 noundef %22, i32 poison)
  br label %drsuapi_dissect_DsWriteAccountSpnResult.exit

drsuapi_dissect_DsWriteAccountSpnResult.exit:     ; preds = %13, %21
  %.1.i = phi i32 [ %23, %21 ], [ %.0.i, %13 ]
  %24 = load ptr, ptr %7, align 8
  %25 = sub i32 %.1.i, %1
  call void @proto_item_set_len(ptr noundef %24, i32 noundef %25) #5
  call void @llvm.lifetime.end.p0(i64 8, ptr nonnull %7)
  call void @llvm.lifetime.end.p0(i64 4, ptr nonnull %8)
  ret i32 %.1.i
}